target datalayout = "e-m:e-p270:32:32-p271:32:32-p272:64:64-i64:64-i128:128-f80:128-n8:16:32:64-S128"
target triple = "x86_64-pc-linux-gnu"

%struct._generic_N_Vector_Ops = type { ptr, ptr, ptr, ptr, ptr, ptr, ptr, ptr, ptr, ptr, ptr, ptr, ptr, ptr, ptr, ptr, ptr, ptr, ptr, ptr, ptr, ptr, ptr, ptr, ptr }
%struct._N_VectorContent_Serial = type { i64, i32, ptr }
%struct._generic_N_Vector = type { ptr, ptr }

; Function Attrs: nounwind uwtable
define ptr @N_VCloneEmpty_Serial(ptr noundef %0) #0 {
  %2 = alloca ptr, align 8
  %3 = alloca ptr, align 8
  %4 = alloca ptr, align 8
  %5 = alloca ptr, align 8
  %6 = alloca ptr, align 8
  %7 = alloca i32, align 4
  store ptr %0, ptr %3, align 8, !tbaa !7
  call void @llvm.lifetime.start.p0(i64 8, ptr %4) #6
  call void @llvm.lifetime.start.p0(i64 8, ptr %5) #6
  call void @llvm.lifetime.start.p0(i64 8, ptr %6) #6
  %8 = load ptr, ptr %3, align 8, !tbaa !7
  %9 = icmp eq ptr %8, null
  br i1 %9, label %10, label %11

10:                                               ; preds = %1
  store ptr null, ptr %2, align 8
  store i32 1, ptr %7, align 4
  br label %223

11:                                               ; preds = %1
  store ptr null, ptr %4, align 8, !tbaa !7
  %12 = call noalias ptr @malloc(i64 noundef 16) #7
  store ptr %12, ptr %4, align 8, !tbaa !7
  %13 = load ptr, ptr %4, align 8, !tbaa !7
  %14 = icmp eq ptr %13, null
  br i1 %14, label %15, label %16

15:                                               ; preds = %11
  store ptr null, ptr %2, align 8
  store i32 1, ptr %7, align 4
  br label %223

16:                                               ; preds = %11
  store ptr null, ptr %5, align 8, !tbaa !10
  %17 = call noalias ptr @malloc(i64 noundef 200) #7
  store ptr %17, ptr %5, align 8, !tbaa !10
  %18 = load ptr, ptr %5, align 8, !tbaa !10
  %19 = icmp eq ptr %18, null
  br i1 %19, label %20, label %22

20:                                               ; preds = %16
  %21 = load ptr, ptr %4, align 8, !tbaa !7
  call void @free(ptr noundef %21) #6
  store ptr null, ptr %2, align 8
  store i32 1, ptr %7, align 4
  br label %223

22:                                               ; preds = %16
  %23 = load ptr, ptr %3, align 8, !tbaa !7
  %24 = getelementptr inbounds nuw %struct._generic_N_Vector, ptr %23, i32 0, i32 1
  %25 = load ptr, ptr %24, align 8, !tbaa !48
  %26 = getelementptr inbounds nuw %struct._generic_N_Vector_Ops, ptr %25, i32 0, i32 0
  %27 = load ptr, ptr %26, align 8, !tbaa !12
  %28 = load ptr, ptr %5, align 8, !tbaa !10
  %29 = getelementptr inbounds nuw %struct._generic_N_Vector_Ops, ptr %28, i32 0, i32 0
  store ptr %27, ptr %29, align 8, !tbaa !12
  %30 = load ptr, ptr %3, align 8, !tbaa !7
  %31 = getelementptr inbounds nuw %struct._generic_N_Vector, ptr %30, i32 0, i32 1
  %32 = load ptr, ptr %31, align 8, !tbaa !48
  %33 = getelementptr inbounds nuw %struct._generic_N_Vector_Ops, ptr %32, i32 0, i32 1
  %34 = load ptr, ptr %33, align 8, !tbaa !14
  %35 = load ptr, ptr %5, align 8, !tbaa !10
  %36 = getelementptr inbounds nuw %struct._generic_N_Vector_Ops, ptr %35, i32 0, i32 1
  store ptr %34, ptr %36, align 8, !tbaa !14
  %37 = load ptr, ptr %3, align 8, !tbaa !7
  %38 = getelementptr inbounds nuw %struct._generic_N_Vector, ptr %37, i32 0, i32 1
  %39 = load ptr, ptr %38, align 8, !tbaa !48
  %40 = getelementptr inbounds nuw %struct._generic_N_Vector_Ops, ptr %39, i32 0, i32 2
  %41 = load ptr, ptr %40, align 8, !tbaa !15
  %42 = load ptr, ptr %5, align 8, !tbaa !10
  %43 = getelementptr inbounds nuw %struct._generic_N_Vector_Ops, ptr %42, i32 0, i32 2
  store ptr %41, ptr %43, align 8, !tbaa !15
  %44 = load ptr, ptr %3, align 8, !tbaa !7
  %45 = getelementptr inbounds nuw %struct._generic_N_Vector, ptr %44, i32 0, i32 1
  %46 = load ptr, ptr %45, align 8, !tbaa !48
  %47 = getelementptr inbounds nuw %struct._generic_N_Vector_Ops, ptr %46, i32 0, i32 3
  %48 = load ptr, ptr %47, align 8, !tbaa !16
  %49 = load ptr, ptr %5, align 8, !tbaa !10
  %50 = getelementptr inbounds nuw %struct._generic_N_Vector_Ops, ptr %49, i32 0, i32 3
  store ptr %48, ptr %50, align 8, !tbaa !16
  %51 = load ptr, ptr %3, align 8, !tbaa !7
  %52 = getelementptr inbounds nuw %struct._generic_N_Vector, ptr %51, i32 0, i32 1
  %53 = load ptr, ptr %52, align 8, !tbaa !48
  %54 = getelementptr inbounds nuw %struct._generic_N_Vector_Ops, ptr %53, i32 0, i32 4
  %55 = load ptr, ptr %54, align 8, !tbaa !17
  %56 = load ptr, ptr %5, align 8, !tbaa !10
  %57 = getelementptr inbounds nuw %struct._generic_N_Vector_Ops, ptr %56, i32 0, i32 4
  store ptr %55, ptr %57, align 8, !tbaa !17
  %58 = load ptr, ptr %3, align 8, !tbaa !7
  %59 = getelementptr inbounds nuw %struct._generic_N_Vector, ptr %58, i32 0, i32 1
  %60 = load ptr, ptr %59, align 8, !tbaa !48
  %61 = getelementptr inbounds nuw %struct._generic_N_Vector_Ops, ptr %60, i32 0, i32 5
  %62 = load ptr, ptr %61, align 8, !tbaa !18
  %63 = load ptr, ptr %5, align 8, !tbaa !10
  %64 = getelementptr inbounds nuw %struct._generic_N_Vector_Ops, ptr %63, i32 0, i32 5
  store ptr %62, ptr %64, align 8, !tbaa !18
  %65 = load ptr, ptr %3, align 8, !tbaa !7
  %66 = getelementptr inbounds nuw %struct._generic_N_Vector, ptr %65, i32 0, i32 1
  %67 = load ptr, ptr %66, align 8, !tbaa !48
  %68 = getelementptr inbounds nuw %struct._generic_N_Vector_Ops, ptr %67, i32 0, i32 6
  %69 = load ptr, ptr %68, align 8, !tbaa !19
  %70 = load ptr, ptr %5, align 8, !tbaa !10
  %71 = getelementptr inbounds nuw %struct._generic_N_Vector_Ops, ptr %70, i32 0, i32 6
  store ptr %69, ptr %71, align 8, !tbaa !19
  %72 = load ptr, ptr %3, align 8, !tbaa !7
  %73 = getelementptr inbounds nuw %struct._generic_N_Vector, ptr %72, i32 0, i32 1
  %74 = load ptr, ptr %73, align 8, !tbaa !48
  %75 = getelementptr inbounds nuw %struct._generic_N_Vector_Ops, ptr %74, i32 0, i32 7
  %76 = load ptr, ptr %75, align 8, !tbaa !20
  %77 = load ptr, ptr %5, align 8, !tbaa !10
  %78 = getelementptr inbounds nuw %struct._generic_N_Vector_Ops, ptr %77, i32 0, i32 7
  store ptr %76, ptr %78, align 8, !tbaa !20
  %79 = load ptr, ptr %3, align 8, !tbaa !7
  %80 = getelementptr inbounds nuw %struct._generic_N_Vector, ptr %79, i32 0, i32 1
  %81 = load ptr, ptr %80, align 8, !tbaa !48
  %82 = getelementptr inbounds nuw %struct._generic_N_Vector_Ops, ptr %81, i32 0, i32 8
  %83 = load ptr, ptr %82, align 8, !tbaa !21
  %84 = load ptr, ptr %5, align 8, !tbaa !10
  %85 = getelementptr inbounds nuw %struct._generic_N_Vector_Ops, ptr %84, i32 0, i32 8
  store ptr %83, ptr %85, align 8, !tbaa !21
  %86 = load ptr, ptr %3, align 8, !tbaa !7
  %87 = getelementptr inbounds nuw %struct._generic_N_Vector, ptr %86, i32 0, i32 1
  %88 = load ptr, ptr %87, align 8, !tbaa !48
  %89 = getelementptr inbounds nuw %struct._generic_N_Vector_Ops, ptr %88, i32 0, i32 9
  %90 = load ptr, ptr %89, align 8, !tbaa !22
  %91 = load ptr, ptr %5, align 8, !tbaa !10
  %92 = getelementptr inbounds nuw %struct._generic_N_Vector_Ops, ptr %91, i32 0, i32 9
  store ptr %90, ptr %92, align 8, !tbaa !22
  %93 = load ptr, ptr %3, align 8, !tbaa !7
  %94 = getelementptr inbounds nuw %struct._generic_N_Vector, ptr %93, i32 0, i32 1
  %95 = load ptr, ptr %94, align 8, !tbaa !48
  %96 = getelementptr inbounds nuw %struct._generic_N_Vector_Ops, ptr %95, i32 0, i32 10
  %97 = load ptr, ptr %96, align 8, !tbaa !23
  %98 = load ptr, ptr %5, align 8, !tbaa !10
  %99 = getelementptr inbounds nuw %struct._generic_N_Vector_Ops, ptr %98, i32 0, i32 10
  store ptr %97, ptr %99, align 8, !tbaa !23
  %100 = load ptr, ptr %3, align 8, !tbaa !7
  %101 = getelementptr inbounds nuw %struct._generic_N_Vector, ptr %100, i32 0, i32 1
  %102 = load ptr, ptr %101, align 8, !tbaa !48
  %103 = getelementptr inbounds nuw %struct._generic_N_Vector_Ops, ptr %102, i32 0, i32 11
  %104 = load ptr, ptr %103, align 8, !tbaa !24
  %105 = load ptr, ptr %5, align 8, !tbaa !10
  %106 = getelementptr inbounds nuw %struct._generic_N_Vector_Ops, ptr %105, i32 0, i32 11
  store ptr %104, ptr %106, align 8, !tbaa !24
  %107 = load ptr, ptr %3, align 8, !tbaa !7
  %108 = getelementptr inbounds nuw %struct._generic_N_Vector, ptr %107, i32 0, i32 1
  %109 = load ptr, ptr %108, align 8, !tbaa !48
  %110 = getelementptr inbounds nuw %struct._generic_N_Vector_Ops, ptr %109, i32 0, i32 12
  %111 = load ptr, ptr %110, align 8, !tbaa !25
  %112 = load ptr, ptr %5, align 8, !tbaa !10
  %113 = getelementptr inbounds nuw %struct._generic_N_Vector_Ops, ptr %112, i32 0, i32 12
  store ptr %111, ptr %113, align 8, !tbaa !25
  %114 = load ptr, ptr %3, align 8, !tbaa !7
  %115 = getelementptr inbounds nuw %struct._generic_N_Vector, ptr %114, i32 0, i32 1
  %116 = load ptr, ptr %115, align 8, !tbaa !48
  %117 = getelementptr inbounds nuw %struct._generic_N_Vector_Ops, ptr %116, i32 0, i32 13
  %118 = load ptr, ptr %117, align 8, !tbaa !26
  %119 = load ptr, ptr %5, align 8, !tbaa !10
  %120 = getelementptr inbounds nuw %struct._generic_N_Vector_Ops, ptr %119, i32 0, i32 13
  store ptr %118, ptr %120, align 8, !tbaa !26
  %121 = load ptr, ptr %3, align 8, !tbaa !7
  %122 = getelementptr inbounds nuw %struct._generic_N_Vector, ptr %121, i32 0, i32 1
  %123 = load ptr, ptr %122, align 8, !tbaa !48
  %124 = getelementptr inbounds nuw %struct._generic_N_Vector_Ops, ptr %123, i32 0, i32 14
  %125 = load ptr, ptr %124, align 8, !tbaa !27
  %126 = load ptr, ptr %5, align 8, !tbaa !10
  %127 = getelementptr inbounds nuw %struct._generic_N_Vector_Ops, ptr %126, i32 0, i32 14
  store ptr %125, ptr %127, align 8, !tbaa !27
  %128 = load ptr, ptr %3, align 8, !tbaa !7
  %129 = getelementptr inbounds nuw %struct._generic_N_Vector, ptr %128, i32 0, i32 1
  %130 = load ptr, ptr %129, align 8, !tbaa !48
  %131 = getelementptr inbounds nuw %struct._generic_N_Vector_Ops, ptr %130, i32 0, i32 15
  %132 = load ptr, ptr %131, align 8, !tbaa !28
  %133 = load ptr, ptr %5, align 8, !tbaa !10
  %134 = getelementptr inbounds nuw %struct._generic_N_Vector_Ops, ptr %133, i32 0, i32 15
  store ptr %132, ptr %134, align 8, !tbaa !28
  %135 = load ptr, ptr %3, align 8, !tbaa !7
  %136 = getelementptr inbounds nuw %struct._generic_N_Vector, ptr %135, i32 0, i32 1
  %137 = load ptr, ptr %136, align 8, !tbaa !48
  %138 = getelementptr inbounds nuw %struct._generic_N_Vector_Ops, ptr %137, i32 0, i32 17
  %139 = load ptr, ptr %138, align 8, !tbaa !29
  %140 = load ptr, ptr %5, align 8, !tbaa !10
  %141 = getelementptr inbounds nuw %struct._generic_N_Vector_Ops, ptr %140, i32 0, i32 17
  store ptr %139, ptr %141, align 8, !tbaa !29
  %142 = load ptr, ptr %3, align 8, !tbaa !7
  %143 = getelementptr inbounds nuw %struct._generic_N_Vector, ptr %142, i32 0, i32 1
  %144 = load ptr, ptr %143, align 8, !tbaa !48
  %145 = getelementptr inbounds nuw %struct._generic_N_Vector_Ops, ptr %144, i32 0, i32 16
  %146 = load ptr, ptr %145, align 8, !tbaa !30
  %147 = load ptr, ptr %5, align 8, !tbaa !10
  %148 = getelementptr inbounds nuw %struct._generic_N_Vector_Ops, ptr %147, i32 0, i32 16
  store ptr %146, ptr %148, align 8, !tbaa !30
  %149 = load ptr, ptr %3, align 8, !tbaa !7
  %150 = getelementptr inbounds nuw %struct._generic_N_Vector, ptr %149, i32 0, i32 1
  %151 = load ptr, ptr %150, align 8, !tbaa !48
  %152 = getelementptr inbounds nuw %struct._generic_N_Vector_Ops, ptr %151, i32 0, i32 18
  %153 = load ptr, ptr %152, align 8, !tbaa !31
  %154 = load ptr, ptr %5, align 8, !tbaa !10
  %155 = getelementptr inbounds nuw %struct._generic_N_Vector_Ops, ptr %154, i32 0, i32 18
  store ptr %153, ptr %155, align 8, !tbaa !31
  %156 = load ptr, ptr %3, align 8, !tbaa !7
  %157 = getelementptr inbounds nuw %struct._generic_N_Vector, ptr %156, i32 0, i32 1
  %158 = load ptr, ptr %157, align 8, !tbaa !48
  %159 = getelementptr inbounds nuw %struct._generic_N_Vector_Ops, ptr %158, i32 0, i32 19
  %160 = load ptr, ptr %159, align 8, !tbaa !32
  %161 = load ptr, ptr %5, align 8, !tbaa !10
  %162 = getelementptr inbounds nuw %struct._generic_N_Vector_Ops, ptr %161, i32 0, i32 19
  store ptr %160, ptr %162, align 8, !tbaa !32
  %163 = load ptr, ptr %3, align 8, !tbaa !7
  %164 = getelementptr inbounds nuw %struct._generic_N_Vector, ptr %163, i32 0, i32 1
  %165 = load ptr, ptr %164, align 8, !tbaa !48
  %166 = getelementptr inbounds nuw %struct._generic_N_Vector_Ops, ptr %165, i32 0, i32 20
  %167 = load ptr, ptr %166, align 8, !tbaa !33
  %168 = load ptr, ptr %5, align 8, !tbaa !10
  %169 = getelementptr inbounds nuw %struct._generic_N_Vector_Ops, ptr %168, i32 0, i32 20
  store ptr %167, ptr %169, align 8, !tbaa !33
  %170 = load ptr, ptr %3, align 8, !tbaa !7
  %171 = getelementptr inbounds nuw %struct._generic_N_Vector, ptr %170, i32 0, i32 1
  %172 = load ptr, ptr %171, align 8, !tbaa !48
  %173 = getelementptr inbounds nuw %struct._generic_N_Vector_Ops, ptr %172, i32 0, i32 21
  %174 = load ptr, ptr %173, align 8, !tbaa !34
  %175 = load ptr, ptr %5, align 8, !tbaa !10
  %176 = getelementptr inbounds nuw %struct._generic_N_Vector_Ops, ptr %175, i32 0, i32 21
  store ptr %174, ptr %176, align 8, !tbaa !34
  %177 = load ptr, ptr %3, align 8, !tbaa !7
  %178 = getelementptr inbounds nuw %struct._generic_N_Vector, ptr %177, i32 0, i32 1
  %179 = load ptr, ptr %178, align 8, !tbaa !48
  %180 = getelementptr inbounds nuw %struct._generic_N_Vector_Ops, ptr %179, i32 0, i32 22
  %181 = load ptr, ptr %180, align 8, !tbaa !35
  %182 = load ptr, ptr %5, align 8, !tbaa !10
  %183 = getelementptr inbounds nuw %struct._generic_N_Vector_Ops, ptr %182, i32 0, i32 22
  store ptr %181, ptr %183, align 8, !tbaa !35
  %184 = load ptr, ptr %3, align 8, !tbaa !7
  %185 = getelementptr inbounds nuw %struct._generic_N_Vector, ptr %184, i32 0, i32 1
  %186 = load ptr, ptr %185, align 8, !tbaa !48
  %187 = getelementptr inbounds nuw %struct._generic_N_Vector_Ops, ptr %186, i32 0, i32 23
  %188 = load ptr, ptr %187, align 8, !tbaa !36
  %189 = load ptr, ptr %5, align 8, !tbaa !10
  %190 = getelementptr inbounds nuw %struct._generic_N_Vector_Ops, ptr %189, i32 0, i32 23
  store ptr %188, ptr %190, align 8, !tbaa !36
  %191 = load ptr, ptr %3, align 8, !tbaa !7
  %192 = getelementptr inbounds nuw %struct._generic_N_Vector, ptr %191, i32 0, i32 1
  %193 = load ptr, ptr %192, align 8, !tbaa !48
  %194 = getelementptr inbounds nuw %struct._generic_N_Vector_Ops, ptr %193, i32 0, i32 24
  %195 = load ptr, ptr %194, align 8, !tbaa !37
  %196 = load ptr, ptr %5, align 8, !tbaa !10
  %197 = getelementptr inbounds nuw %struct._generic_N_Vector_Ops, ptr %196, i32 0, i32 24
  store ptr %195, ptr %197, align 8, !tbaa !37
  store ptr null, ptr %6, align 8, !tbaa !38
  %198 = call noalias ptr @malloc(i64 noundef 24) #7
  store ptr %198, ptr %6, align 8, !tbaa !38
  %199 = load ptr, ptr %6, align 8, !tbaa !38
  %200 = icmp eq ptr %199, null
  br i1 %200, label %201, label %204

201:                                              ; preds = %22
  %202 = load ptr, ptr %5, align 8, !tbaa !10
  call void @free(ptr noundef %202) #6
  %203 = load ptr, ptr %4, align 8, !tbaa !7
  call void @free(ptr noundef %203) #6
  store ptr null, ptr %2, align 8
  store i32 1, ptr %7, align 4
  br label %223

204:                                              ; preds = %22
  %205 = load ptr, ptr %3, align 8, !tbaa !7
  %206 = getelementptr inbounds nuw %struct._generic_N_Vector, ptr %205, i32 0, i32 0
  %207 = load ptr, ptr %206, align 8, !tbaa !46
  %208 = getelementptr inbounds nuw %struct._N_VectorContent_Serial, ptr %207, i32 0, i32 0
  %209 = load i64, ptr %208, align 8, !tbaa !40
  %210 = load ptr, ptr %6, align 8, !tbaa !38
  %211 = getelementptr inbounds nuw %struct._N_VectorContent_Serial, ptr %210, i32 0, i32 0
  store i64 %209, ptr %211, align 8, !tbaa !40
  %212 = load ptr, ptr %6, align 8, !tbaa !38
  %213 = getelementptr inbounds nuw %struct._N_VectorContent_Serial, ptr %212, i32 0, i32 1
  store i32 0, ptr %213, align 8, !tbaa !44
  %214 = load ptr, ptr %6, align 8, !tbaa !38
  %215 = getelementptr inbounds nuw %struct._N_VectorContent_Serial, ptr %214, i32 0, i32 2
  store ptr null, ptr %215, align 8, !tbaa !45
  %216 = load ptr, ptr %6, align 8, !tbaa !38
  %217 = load ptr, ptr %4, align 8, !tbaa !7
  %218 = getelementptr inbounds nuw %struct._generic_N_Vector, ptr %217, i32 0, i32 0
  store ptr %216, ptr %218, align 8, !tbaa !46
  %219 = load ptr, ptr %5, align 8, !tbaa !10
  %220 = load ptr, ptr %4, align 8, !tbaa !7
  %221 = getelementptr inbounds nuw %struct._generic_N_Vector, ptr %220, i32 0, i32 1
  store ptr %219, ptr %221, align 8, !tbaa !48
  %222 = load ptr, ptr %4, align 8, !tbaa !7
  store ptr %222, ptr %2, align 8
  store i32 1, ptr %7, align 4
  br label %223

223:                                              ; preds = %204, %201, %20, %15, %10
  call void @llvm.lifetime.end.p0(i64 8, ptr %6) #6
  call void @llvm.lifetime.end.p0(i64 8, ptr %5) #6
  call void @llvm.lifetime.end.p0(i64 8, ptr %4) #6
  %224 = load ptr, ptr %2, align 8
  ret ptr %224
}