; Function Attrs: mustprogress nounwind willreturn memory(readwrite, argmem: read) uwtable
define noalias noundef ptr @N_VCloneEmpty_Serial(ptr noundef readonly captures(address_is_null) %0) #4 {
  %2 = icmp eq ptr %0, null
  br i1 %2, label %95, label %3

3:                                                ; preds = %1
  %4 = tail call noalias dereferenceable_or_null(16) ptr @malloc(i64 noundef 16) #17
  %5 = icmp eq ptr %4, null
  br i1 %5, label %95, label %6

6:                                                ; preds = %3
  %7 = tail call noalias dereferenceable_or_null(200) ptr @malloc(i64 noundef 200) #17
  %8 = icmp eq ptr %7, null
  br i1 %8, label %9, label %10

9:                                                ; preds = %6
  tail call void @free(ptr noundef nonnull %4) #18
  br label %95

10:                                               ; preds = %6
  %11 = getelementptr inbounds nuw i8, ptr %0, i64 8
  %12 = load ptr, ptr %11, align 8, !tbaa !42
  %13 = load ptr, ptr %12, align 8, !tbaa !3
  store ptr %13, ptr %7, align 8, !tbaa !3
  %14 = getelementptr inbounds nuw i8, ptr %12, i64 8
  %15 = load ptr, ptr %14, align 8, !tbaa !8
  %16 = getelementptr inbounds nuw i8, ptr %7, i64 8
  store ptr %15, ptr %16, align 8, !tbaa !8
  %17 = getelementptr inbounds nuw i8, ptr %12, i64 16
  %18 = load ptr, ptr %17, align 8, !tbaa !9
  %19 = getelementptr inbounds nuw i8, ptr %7, i64 16
  store ptr %18, ptr %19, align 8, !tbaa !9
  %20 = getelementptr inbounds nuw i8, ptr %12, i64 24
  %21 = load ptr, ptr %20, align 8, !tbaa !10
  %22 = getelementptr inbounds nuw i8, ptr %7, i64 24
  store ptr %21, ptr %22, align 8, !tbaa !10
  %23 = getelementptr inbounds nuw i8, ptr %12, i64 32
  %24 = load ptr, ptr %23, align 8, !tbaa !11
  %25 = getelementptr inbounds nuw i8, ptr %7, i64 32
  store ptr %24, ptr %25, align 8, !tbaa !11
  %26 = getelementptr inbounds nuw i8, ptr %12, i64 40
  %27 = load ptr, ptr %26, align 8, !tbaa !12
  %28 = getelementptr inbounds nuw i8, ptr %7, i64 40
  store ptr %27, ptr %28, align 8, !tbaa !12
  %29 = getelementptr inbounds nuw i8, ptr %12, i64 48
  %30 = load ptr, ptr %29, align 8, !tbaa !13
  %31 = getelementptr inbounds nuw i8, ptr %7, i64 48
  store ptr %30, ptr %31, align 8, !tbaa !13
  %32 = getelementptr inbounds nuw i8, ptr %12, i64 56
  %33 = load ptr, ptr %32, align 8, !tbaa !14
  %34 = getelementptr inbounds nuw i8, ptr %7, i64 56
  store ptr %33, ptr %34, align 8, !tbaa !14
  %35 = getelementptr inbounds nuw i8, ptr %12, i64 64
  %36 = load ptr, ptr %35, align 8, !tbaa !15
  %37 = getelementptr inbounds nuw i8, ptr %7, i64 64
  store ptr %36, ptr %37, align 8, !tbaa !15
  %38 = getelementptr inbounds nuw i8, ptr %12, i64 72
  %39 = load ptr, ptr %38, align 8, !tbaa !16
  %40 = getelementptr inbounds nuw i8, ptr %7, i64 72
  store ptr %39, ptr %40, align 8, !tbaa !16
  %41 = getelementptr inbounds nuw i8, ptr %12, i64 80
  %42 = load ptr, ptr %41, align 8, !tbaa !17
  %43 = getelementptr inbounds nuw i8, ptr %7, i64 80
  store ptr %42, ptr %43, align 8, !tbaa !17
  %44 = getelementptr inbounds nuw i8, ptr %12, i64 88
  %45 = load ptr, ptr %44, align 8, !tbaa !18
  %46 = getelementptr inbounds nuw i8, ptr %7, i64 88
  store ptr %45, ptr %46, align 8, !tbaa !18
  %47 = getelementptr inbounds nuw i8, ptr %12, i64 96
  %48 = load ptr, ptr %47, align 8, !tbaa !19
  %49 = getelementptr inbounds nuw i8, ptr %7, i64 96
  store ptr %48, ptr %49, align 8, !tbaa !19
  %50 = getelementptr inbounds nuw i8, ptr %12, i64 104
  %51 = load ptr, ptr %50, align 8, !tbaa !20
  %52 = getelementptr inbounds nuw i8, ptr %7, i64 104
  store ptr %51, ptr %52, align 8, !tbaa !20
  %53 = getelementptr inbounds nuw i8, ptr %12, i64 112
  %54 = load ptr, ptr %53, align 8, !tbaa !21
  %55 = getelementptr inbounds nuw i8, ptr %7, i64 112
  store ptr %54, ptr %55, align 8, !tbaa !21
  %56 = getelementptr inbounds nuw i8, ptr %12, i64 120
  %57 = load ptr, ptr %56, align 8, !tbaa !22
  %58 = getelementptr inbounds nuw i8, ptr %7, i64 120
  store ptr %57, ptr %58, align 8, !tbaa !22
  %59 = getelementptr inbounds nuw i8, ptr %12, i64 136
  %60 = load ptr, ptr %59, align 8, !tbaa !23
  %61 = getelementptr inbounds nuw i8, ptr %7, i64 136
  store ptr %60, ptr %61, align 8, !tbaa !23
  %62 = getelementptr inbounds nuw i8, ptr %12, i64 128
  %63 = load ptr, ptr %62, align 8, !tbaa !24
  %64 = getelementptr inbounds nuw i8, ptr %7, i64 128
  store ptr %63, ptr %64, align 8, !tbaa !24
  %65 = getelementptr inbounds nuw i8, ptr %12, i64 144
  %66 = load ptr, ptr %65, align 8, !tbaa !25
  %67 = getelementptr inbounds nuw i8, ptr %7, i64 144
  store ptr %66, ptr %67, align 8, !tbaa !25
  %68 = getelementptr inbounds nuw i8, ptr %12, i64 152
  %69 = load ptr, ptr %68, align 8, !tbaa !26
  %70 = getelementptr inbounds nuw i8, ptr %7, i64 152
  store ptr %69, ptr %70, align 8, !tbaa !26
  %71 = getelementptr inbounds nuw i8, ptr %12, i64 160
  %72 = load ptr, ptr %71, align 8, !tbaa !27
  %73 = getelementptr inbounds nuw i8, ptr %7, i64 160
  store ptr %72, ptr %73, align 8, !tbaa !27
  %74 = getelementptr inbounds nuw i8, ptr %12, i64 168
  %75 = load ptr, ptr %74, align 8, !tbaa !28
  %76 = getelementptr inbounds nuw i8, ptr %7, i64 168
  store ptr %75, ptr %76, align 8, !tbaa !28
  %77 = getelementptr inbounds nuw i8, ptr %12, i64 176
  %78 = load ptr, ptr %77, align 8, !tbaa !29
  %79 = getelementptr inbounds nuw i8, ptr %7, i64 176
  store ptr %78, ptr %79, align 8, !tbaa !29
  %80 = getelementptr inbounds nuw i8, ptr %12, i64 184
  %81 = load ptr, ptr %80, align 8, !tbaa !30
  %82 = getelementptr inbounds nuw i8, ptr %7, i64 184
  store ptr %81, ptr %82, align 8, !tbaa !30
  %83 = getelementptr inbounds nuw i8, ptr %12, i64 192
  %84 = load ptr, ptr %83, align 8, !tbaa !31
  %85 = getelementptr inbounds nuw i8, ptr %7, i64 192
  store ptr %84, ptr %85, align 8, !tbaa !31
  %86 = tail call noalias dereferenceable_or_null(24) ptr @malloc(i64 noundef 24) #17
  %87 = icmp eq ptr %86, null
  br i1 %87, label %88, label %89

88:                                               ; preds = %10
  tail call void @free(ptr noundef nonnull %7) #18
  tail call void @free(ptr noundef nonnull %4) #18
  br label %95

89:                                               ; preds = %10
  %90 = load ptr, ptr %0, align 8, !tbaa !39
  %91 = load i64, ptr %90, align 8, !tbaa !32
  store i64 %91, ptr %86, align 8, !tbaa !32
  %92 = getelementptr inbounds nuw i8, ptr %86, i64 8
  store i32 0, ptr %92, align 8, !tbaa !37
  %93 = getelementptr inbounds nuw i8, ptr %86, i64 16
  store ptr null, ptr %93, align 8, !tbaa !38
  store ptr %86, ptr %4, align 8, !tbaa !39
  %94 = getelementptr inbounds nuw i8, ptr %4, i64 8
  store ptr %7, ptr %94, align 8, !tbaa !42
  br label %95

95:                                               ; preds = %3, %1, %89, %88, %9
  %.0 = phi ptr [ null, %9 ], [ null, %88 ], [ %4, %89 ], [ null, %1 ], [ null, %3 ]
  ret ptr %.0
}